target datalayout = "e-m:e-p270:32:32-p271:32:32-p272:64:64-i64:64-i128:128-f80:128-n8:16:32:64-S128"
target triple = "x86_64-pc-linux-gnu"

@.str.29 = private unnamed_addr constant [22 x i8] c"NULL parameter given\0A\00", align 1
@.str.30 = private unnamed_addr constant [43 x i8] c"Failed to convert x509 certificate to PEM\0A\00", align 1
@.str.31 = private unnamed_addr constant [53 x i8] c"Could not realloc enough memory for PEM certificate\0A\00", align 1
@.str.32 = private unnamed_addr constant [32 x i8] c"_x509_to_pem: Invalid argument\0A\00", align 1
@.str.33 = private unnamed_addr constant [16 x i8] c"BIO_new failed\0A\00", align 1
@.str.34 = private unnamed_addr constant [34 x i8] c"BIO_new: BIO_get_mem_data failed\0A\00", align 1
@.str.35 = private unnamed_addr constant [24 x i8] c"BIO_new: malloc failed\0A\00", align 1

; Function Attrs: nounwind uwtable
define internal i32 @_x509_to_pem(ptr noundef %0, ptr noundef %1, ptr noundef %2) #0 {
  %4 = alloca ptr, align 8
  %5 = alloca ptr, align 8
  %6 = alloca ptr, align 8
  %7 = alloca i32, align 4
  %8 = alloca ptr, align 8
  %9 = alloca i64, align 8
  %10 = alloca ptr, align 8
  store ptr %0, ptr %4, align 8
  store ptr %1, ptr %5, align 8
  store ptr %2, ptr %6, align 8
  store i32 26, ptr %7, align 4
  store ptr null, ptr %8, align 8
  store i64 0, ptr %9, align 8
  store ptr null, ptr %10, align 8
  %11 = load ptr, ptr %4, align 8
  %12 = icmp eq ptr %11, null
  br i1 %12, label %19, label %13

13:                                               ; preds = %3
  %14 = load ptr, ptr %5, align 8
  %15 = icmp eq ptr %14, null
  br i1 %15, label %19, label %16

16:                                               ; preds = %13
  %17 = load ptr, ptr %6, align 8
  %18 = icmp eq ptr %17, null
  br i1 %18, label %19, label %20

19:                                               ; preds = %16, %13, %3
  call void (i32, ptr, ...) @mprintf(i32 noundef 5, ptr noundef @.str.32)
  br label %64

20:                                               ; preds = %16
  %21 = call ptr @BIO_s_mem()
  %22 = call ptr @BIO_new(ptr noundef %21)
  store ptr %22, ptr %8, align 8
  %23 = load ptr, ptr %8, align 8
  %24 = icmp ne ptr %23, null
  br i1 %24, label %26, label %25

25:                                               ; preds = %20
  call void (i32, ptr, ...) @mprintf(i32 noundef 5, ptr noundef @.str.33)
  br label %64

26:                                               ; preds = %20
  %27 = load ptr, ptr %8, align 8
  %28 = load ptr, ptr %4, align 8
  %29 = call i32 @PEM_write_bio_X509(ptr noundef %27, ptr noundef %28)
  %30 = load ptr, ptr %8, align 8
  %31 = call i64 @BIO_ctrl(ptr noundef %30, i32 noundef 11, i64 noundef 0, ptr noundef null)
  %32 = load ptr, ptr %8, align 8
  %33 = call i64 @BIO_ctrl(ptr noundef %32, i32 noundef 3, i64 noundef 0, ptr noundef %10)
  store i64 %33, ptr %9, align 8
  %34 = load i64, ptr %9, align 8
  %35 = icmp sle i64 %34, 0
  br i1 %35, label %39, label %36

36:                                               ; preds = %26
  %37 = load ptr, ptr %10, align 8
  %38 = icmp ne ptr %37, null
  br i1 %38, label %41, label %39

39:                                               ; preds = %36, %26
  call void (i32, ptr, ...) @mprintf(i32 noundef 5, ptr noundef @.str.34)
  %40 = load ptr, ptr %8, align 8
  call void @BIO_free_all(ptr noundef %40)
  br label %64

41:                                               ; preds = %36
  %42 = load i64, ptr %9, align 8
  %43 = add nsw i64 %42, 1
  %44 = call noalias ptr @calloc(i64 noundef 1, i64 noundef %43) #13
  %45 = load ptr, ptr %5, align 8
  store ptr %44, ptr %45, align 8
  %46 = load ptr, ptr %5, align 8
  %47 = load ptr, ptr %46, align 8
  %48 = icmp ne ptr %47, null
  br i1 %48, label %51, label %49

49:                                               ; preds = %41
  call void (i32, ptr, ...) @mprintf(i32 noundef 5, ptr noundef @.str.35)
  %50 = load ptr, ptr %8, align 8
  call void @BIO_free_all(ptr noundef %50)
  br label %64

51:                                               ; preds = %41
  %52 = load ptr, ptr %5, align 8
  %53 = load ptr, ptr %52, align 8
  %54 = load ptr, ptr %10, align 8
  %55 = load i64, ptr %9, align 8
  call void @llvm.memcpy.p0.p0.i64(ptr align 1 %53, ptr align 1 %54, i64 %55, i1 false)
  %56 = load ptr, ptr %5, align 8
  %57 = load ptr, ptr %56, align 8
  %58 = load i64, ptr %9, align 8
  %59 = getelementptr inbounds i8, ptr %57, i64 %58
  store i8 0, ptr %59, align 1
  %60 = load i64, ptr %9, align 8
  %61 = trunc i64 %60 to i32
  %62 = load ptr, ptr %6, align 8
  store i32 %61, ptr %62, align 4
  %63 = load ptr, ptr %8, align 8
  call void @BIO_free_all(ptr noundef %63)
  store i32 0, ptr %7, align 4
  br label %64

64:                                               ; preds = %51, %49, %39, %25, %19
  %65 = load i32, ptr %7, align 4
  ret i32 %65
}

; Function Attrs: nounwind uwtable
define internal i32 @_x509_to_pem_append(ptr noundef %0, ptr noundef %1, ptr noundef %2, ptr noundef %3) #0 {
  %5 = alloca ptr, align 8
  %6 = alloca ptr, align 8
  %7 = alloca ptr, align 8
  %8 = alloca ptr, align 8
  %9 = alloca ptr, align 8
  %10 = alloca ptr, align 8
  %11 = alloca i32, align 4
  %12 = alloca i32, align 4
  %13 = alloca i32, align 4
  store ptr %0, ptr %5, align 8
  store ptr %1, ptr %6, align 8
  store ptr %2, ptr %7, align 8
  store ptr %3, ptr %8, align 8
  store ptr null, ptr %9, align 8
  store i32 0, ptr %11, align 4
  store i32 8, ptr %12, align 4
  store i32 0, ptr %13, align 4
  %14 = load ptr, ptr %5, align 8
  %15 = icmp eq ptr %14, null
  br i1 %15, label %26, label %16

16:                                               ; preds = %4
  %17 = load ptr, ptr %7, align 8
  %18 = icmp eq ptr %17, null
  br i1 %18, label %26, label %19

19:                                               ; preds = %16
  %20 = load ptr, ptr %8, align 8
  %21 = icmp eq ptr %20, null
  br i1 %21, label %26, label %22

22:                                               ; preds = %19
  %23 = load ptr, ptr %6, align 8
  %24 = load ptr, ptr %23, align 8
  %25 = icmp eq ptr %24, null
  br i1 %25, label %26, label %27

26:                                               ; preds = %22, %19, %16, %4
  call void (i32, ptr, ...) @mprintf(i32 noundef 5, ptr noundef @.str.29)
  br label %85

27:                                               ; preds = %22
  %28 = load ptr, ptr %7, align 8
  %29 = load i32, ptr %28, align 4
  store i32 %29, ptr %13, align 4
  %30 = load ptr, ptr %5, align 8
  %31 = call i32 @_x509_to_pem(ptr noundef %30, ptr noundef %9, ptr noundef %11)
  %32 = icmp ne i32 0, %31
  br i1 %32, label %33, label %34

33:                                               ; preds = %27
  call void (i32, ptr, ...) @mprintf(i32 noundef 5, ptr noundef @.str.30)
  br label %85

34:                                               ; preds = %27
  %35 = load i32, ptr %11, align 4
  %36 = load ptr, ptr %8, align 8
  %37 = load i64, ptr %36, align 8
  %38 = trunc i64 %37 to i32
  %39 = icmp sgt i32 %35, %38
  br i1 %39, label %40, label %60

40:                                               ; preds = %34
  %41 = load ptr, ptr %6, align 8
  %42 = load ptr, ptr %41, align 8
  %43 = load i32, ptr %13, align 4
  %44 = load i32, ptr %11, align 4
  %45 = add nsw i32 %43, %44
  %46 = add nsw i32 %45, 1
  %47 = sext i32 %46 to i64
  %48 = call ptr @realloc(ptr noundef %42, i64 noundef %47) #14
  store ptr %48, ptr %10, align 8
  %49 = load ptr, ptr %10, align 8
  %50 = icmp eq ptr %49, null
  br i1 %50, label %51, label %56

51:                                               ; preds = %40
  call void (i32, ptr, ...) @mprintf(i32 noundef 5, ptr noundef @.str.31)
  %52 = load ptr, ptr %6, align 8
  %53 = load ptr, ptr %52, align 8
  call void @free(ptr noundef %53) #10
  %54 = load ptr, ptr %6, align 8
  store ptr null, ptr %54, align 8
  %55 = load ptr, ptr %7, align 8
  store i32 0, ptr %55, align 4
  br label %85

56:                                               ; preds = %40
  %57 = load ptr, ptr %10, align 8
  %58 = load ptr, ptr %6, align 8
  store ptr %57, ptr %58, align 8
  store ptr null, ptr %10, align 8
  %59 = load ptr, ptr %8, align 8
  store i64 0, ptr %59, align 8
  br label %66

60:                                               ; preds = %34
  %61 = load i32, ptr %11, align 4
  %62 = sext i32 %61 to i64
  %63 = load ptr, ptr %8, align 8
  %64 = load i64, ptr %63, align 8
  %65 = sub i64 %64, %62
  store i64 %65, ptr %63, align 8
  br label %66

66:                                               ; preds = %60, %56
  %67 = load ptr, ptr %6, align 8
  %68 = load ptr, ptr %67, align 8
  %69 = load i32, ptr %13, align 4
  %70 = sext i32 %69 to i64
  %71 = getelementptr inbounds i8, ptr %68, i64 %70
  %72 = load ptr, ptr %9, align 8
  %73 = load i32, ptr %11, align 4
  %74 = sext i32 %73 to i64
  call void @llvm.memcpy.p0.p0.i64(ptr align 1 %71, ptr align 1 %72, i64 %74, i1 false)
  %75 = load i32, ptr %13, align 4
  %76 = load i32, ptr %11, align 4
  %77 = add nsw i32 %75, %76
  %78 = load ptr, ptr %7, align 8
  store i32 %77, ptr %78, align 4
  %79 = load ptr, ptr %6, align 8
  %80 = load ptr, ptr %79, align 8
  %81 = load ptr, ptr %7, align 8
  %82 = load i32, ptr %81, align 4
  %83 = sext i32 %82 to i64
  %84 = getelementptr inbounds i8, ptr %80, i64 %83
  store i8 0, ptr %84, align 1
  store i32 0, ptr %12, align 4
  br label %85

85:                                               ; preds = %66, %51, %33, %26
  %86 = load ptr, ptr %9, align 8
  call void @free(ptr noundef %86) #10
  store ptr null, ptr %9, align 8
  %87 = load i32, ptr %12, align 4
  ret i32 %87
}