; Function Attrs: nounwind uwtable
define internal fastcc noundef i32 @_x509_to_pem_append(ptr noundef %0, ptr nocapture noundef %1, ptr nocapture noundef %2, ptr noundef %3) unnamed_addr #1 {
  %5 = alloca ptr, align 8
  %6 = icmp eq ptr %0, null
  %7 = icmp eq ptr %3, null
  %or.cond3 = or i1 %6, %7
  br i1 %or.cond3, label %11, label %8

8:                                                ; preds = %4
  %9 = load ptr, ptr %1, align 8
  %10 = icmp eq ptr %9, null
  br i1 %10, label %11, label %12

11:                                               ; preds = %8, %4
  tail call void (i32, ptr, ...) @mprintf(i32 noundef 5, ptr noundef nonnull @.str.29) #15
  br label %57

12:                                               ; preds = %8
  %13 = load i32, ptr %2, align 4
  call void @llvm.lifetime.start.p0(i64 8, ptr nonnull %5)
  store ptr null, ptr %5, align 8
  %14 = tail call ptr @BIO_s_mem() #15
  %15 = tail call ptr @BIO_new(ptr noundef %14) #15
  %.not.i = icmp eq ptr %15, null
  br i1 %.not.i, label %16, label %17

16:                                               ; preds = %12
  tail call void (i32, ptr, ...) @mprintf(i32 noundef 5, ptr noundef nonnull @.str.33) #15
  br label %29

17:                                               ; preds = %12
  %18 = tail call i32 @PEM_write_bio_X509(ptr noundef nonnull %15, ptr noundef nonnull %0) #15
  %19 = tail call i64 @BIO_ctrl(ptr noundef nonnull %15, i32 noundef 11, i64 noundef 0, ptr noundef null) #15
  %20 = call i64 @BIO_ctrl(ptr noundef nonnull %15, i32 noundef 3, i64 noundef 0, ptr noundef nonnull %5) #15
  %21 = icmp sgt i64 %20, 0
  %22 = load ptr, ptr %5, align 8
  %23 = icmp ne ptr %22, null
  %or.cond5.i = select i1 %21, i1 %23, i1 false
  br i1 %or.cond5.i, label %25, label %24

24:                                               ; preds = %17
  call void (i32, ptr, ...) @mprintf(i32 noundef 5, ptr noundef nonnull @.str.34) #15
  call void @BIO_free_all(ptr noundef nonnull %15) #15
  br label %29

25:                                               ; preds = %17
  %26 = add nuw nsw i64 %20, 1
  %27 = call noalias ptr @calloc(i64 noundef 1, i64 noundef %26) #18
  %.not32.i = icmp eq ptr %27, null
  br i1 %.not32.i, label %28, label %30

28:                                               ; preds = %25
  call void (i32, ptr, ...) @mprintf(i32 noundef 5, ptr noundef nonnull @.str.35) #15
  call void @BIO_free_all(ptr noundef nonnull %15) #15
  br label %29

29:                                               ; preds = %28, %24, %16
  call void @llvm.lifetime.end.p0(i64 8, ptr nonnull %5)
  call void (i32, ptr, ...) @mprintf(i32 noundef 5, ptr noundef nonnull @.str.30) #15
  br label %57

30:                                               ; preds = %25
  call void @llvm.memcpy.p0.p0.i64(ptr nonnull align 1 %27, ptr nonnull align 1 %22, i64 %20, i1 false)
  %31 = getelementptr inbounds i8, ptr %27, i64 %20
  store i8 0, ptr %31, align 1
  %32 = trunc i64 %20 to i32
  call void @BIO_free_all(ptr noundef nonnull %15) #15
  call void @llvm.lifetime.end.p0(i64 8, ptr nonnull %5)
  %33 = load i64, ptr %3, align 8
  %34 = trunc i64 %33 to i32
  %35 = icmp sgt i32 %32, %34
  br i1 %35, label %36, label %46

36:                                               ; preds = %30
  %37 = load ptr, ptr %1, align 8
  %38 = add i32 %13, 1
  %39 = add i32 %38, %32
  %40 = sext i32 %39 to i64
  %41 = call ptr @realloc(ptr noundef %37, i64 noundef %40) #19
  %42 = icmp eq ptr %41, null
  br i1 %42, label %43, label %45

43:                                               ; preds = %36
  call void (i32, ptr, ...) @mprintf(i32 noundef 5, ptr noundef nonnull @.str.31) #15
  %44 = load ptr, ptr %1, align 8
  call void @free(ptr noundef %44) #15
  store ptr null, ptr %1, align 8
  store i32 0, ptr %2, align 4
  br label %57

45:                                               ; preds = %36
  store ptr %41, ptr %1, align 8
  %.pre = shl i64 %20, 32
  %.pre42 = ashr exact i64 %.pre, 32
  br label %49

46:                                               ; preds = %30
  %sext = shl i64 %20, 32
  %47 = ashr exact i64 %sext, 32
  %48 = sub i64 %33, %47
  br label %49

49:                                               ; preds = %46, %45
  %.pre-phi = phi i64 [ %47, %46 ], [ %.pre42, %45 ]
  %storemerge = phi i64 [ %48, %46 ], [ 0, %45 ]
  store i64 %storemerge, ptr %3, align 8
  %50 = load ptr, ptr %1, align 8
  %51 = sext i32 %13 to i64
  %52 = getelementptr inbounds i8, ptr %50, i64 %51
  call void @llvm.memcpy.p0.p0.i64(ptr align 1 %52, ptr nonnull align 1 %27, i64 %.pre-phi, i1 false)
  %53 = add nsw i32 %13, %32
  store i32 %53, ptr %2, align 4
  %54 = load ptr, ptr %1, align 8
  %55 = sext i32 %53 to i64
  %56 = getelementptr inbounds i8, ptr %54, i64 %55
  store i8 0, ptr %56, align 1
  br label %57

57:                                               ; preds = %49, %43, %29, %11
  %.1 = phi ptr [ null, %11 ], [ %27, %43 ], [ %27, %49 ], [ null, %29 ]
  %.0 = phi i32 [ 8, %11 ], [ 8, %43 ], [ 0, %49 ], [ 8, %29 ]
  call void @free(ptr noundef %.1) #15
  ret i32 %.0
}